	.file	"core_portme_simtimer.c"
	.option nopic
	.text
.Ltext0:
	.cfi_sections	.debug_frame
	.section	.text.barebones_clock,"ax",@progbits
	.align	2
	.globl	barebones_clock
	.type	barebones_clock, @function
barebones_clock:
.LFB0:
	.file 1 "core_portme_simtimer.c"
	.loc 1 40 0
	.cfi_startproc
	.loc 1 47 0
	li	a5,437260288
	sw	zero,8(a5)
	.loc 1 48 0
	li	a4,1476395008
	sw	a4,8(a5)
	.loc 1 49 0
	lw	a0,4(a5)
.LVL0:
	.loc 1 53 0
	ret
	.cfi_endproc
.LFE0:
	.size	barebones_clock, .-barebones_clock
	.section	.text.start_time,"ax",@progbits
	.align	2
	.globl	start_time
	.type	start_time, @function
start_time:
.LFB1:
	.loc 1 84 0
	.cfi_startproc
.LBB6:
.LBB7:
	.loc 1 47 0
	li	a5,437260288
	sw	zero,8(a5)
	.loc 1 48 0
	li	a4,1476395008
	sw	a4,8(a5)
	.loc 1 49 0
	lw	a4,4(a5)
.LBE7:
.LBE6:
	.loc 1 85 0
	lui	a5,%hi(.LANCHOR0)
	sw	a4,%lo(.LANCHOR0)(a5)
	.loc 1 86 0
	ret
	.cfi_endproc
.LFE1:
	.size	start_time, .-start_time
	.section	.text.stop_time,"ax",@progbits
	.align	2
	.globl	stop_time
	.type	stop_time, @function
stop_time:
.LFB2:
	.loc 1 93 0
	.cfi_startproc
.LBB8:
.LBB9:
	.loc 1 47 0
	li	a5,437260288
	sw	zero,8(a5)
	.loc 1 48 0
	li	a4,1476395008
	sw	a4,8(a5)
	.loc 1 49 0
	lw	a4,4(a5)
.LBE9:
.LBE8:
	.loc 1 94 0
	lui	a5,%hi(.LANCHOR1)
	sw	a4,%lo(.LANCHOR1)(a5)
	.loc 1 95 0
	ret
	.cfi_endproc
.LFE2:
	.size	stop_time, .-stop_time
	.section	.text.get_time,"ax",@progbits
	.align	2
	.globl	get_time
	.type	get_time, @function
get_time:
.LFB3:
	.loc 1 105 0
	.cfi_startproc
.LVL1:
	.loc 1 107 0
	lui	a5,%hi(.LANCHOR1)
	lw	a0,%lo(.LANCHOR1)(a5)
	lui	a5,%hi(.LANCHOR0)
	lw	a5,%lo(.LANCHOR0)(a5)
	.loc 1 109 0
	sub	a0,a0,a5
.LVL2:
	ret
	.cfi_endproc
.LFE3:
	.size	get_time, .-get_time
	.globl	__floatunsidf
	.globl	__divdf3
	.section	.text.time_in_secs,"ax",@progbits
	.align	2
	.globl	time_in_secs
	.type	time_in_secs, @function
time_in_secs:
.LFB4:
	.loc 1 116 0
	.cfi_startproc
.LVL3:
	addi	sp,sp,-16
	.cfi_def_cfa_offset 16
	sw	s0,8(sp)
	.loc 1 117 0
	li	a1,999424
	.cfi_offset 8, -8
	.loc 1 116 0
	mv	s0,a0
	.loc 1 117 0
	lui	a0,%hi(.LC0)
.LVL4:
	addi	a1,a1,576
	addi	a0,a0,%lo(.LC0)
	.loc 1 116 0
	sw	ra,12(sp)
	.cfi_offset 1, -4
	.loc 1 117 0
	call	ee_printf
.LVL5:
	.loc 1 118 0
	mv	a0,s0
	call	__floatunsidf
.LVL6:
	lui	a5,%hi(.LC1)
	lw	a2,%lo(.LC1)(a5)
	lw	a3,%lo(.LC1+4)(a5)
	call	__divdf3
.LVL7:
	.loc 1 121 0
	lw	ra,12(sp)
	.cfi_restore 1
	lw	s0,8(sp)
	.cfi_restore 8
.LVL8:
	addi	sp,sp,16
	.cfi_def_cfa_offset 0
	jr	ra
	.cfi_endproc
.LFE4:
	.size	time_in_secs, .-time_in_secs
	.section	.text.portable_init,"ax",@progbits
	.align	2
	.globl	portable_init
	.type	portable_init, @function
portable_init:
.LFB5:
	.loc 1 130 0
	.cfi_startproc
.LVL9:
	.loc 1 138 0
	li	a5,1
	sb	a5,0(a0)
	.loc 1 139 0
	ret
	.cfi_endproc
.LFE5:
	.size	portable_init, .-portable_init
	.section	.text.portable_fini,"ax",@progbits
	.align	2
	.globl	portable_fini
	.type	portable_fini, @function
portable_fini:
.LFB6:
	.loc 1 144 0
	.cfi_startproc
.LVL10:
	addi	sp,sp,-16
	.cfi_def_cfa_offset 16
	sw	s0,8(sp)
	.cfi_offset 8, -8
	mv	s0,a0
	sw	ra,12(sp)
	.cfi_offset 1, -4
	.loc 1 145 0
	call	sim_finish
.LVL11:
	.loc 1 146 0
	sb	zero,0(s0)
	.loc 1 147 0
	lw	ra,12(sp)
	.cfi_restore 1
	lw	s0,8(sp)
	.cfi_restore 8
.LVL12:
	addi	sp,sp,16
	.cfi_def_cfa_offset 0
	jr	ra
	.cfi_endproc
.LFE6:
	.size	portable_fini, .-portable_fini
	.globl	default_num_contexts
	.globl	seed5_volatile
	.globl	seed4_volatile
	.globl	seed3_volatile
	.globl	seed2_volatile
	.globl	seed1_volatile
	.section	.rodata.time_in_secs.cst8,"aM",@progbits,8
	.align	3
.LC1:
	.word	0
	.word	1093567616
	.section	.rodata.time_in_secs.str1.4,"aMS",@progbits,1
	.align	2
.LC0:
	.string	"TMP_UDI: CLOCKS_PER_SEC = %d\n"
	.section	.sbss.seed1_volatile,"aw",@nobits
	.align	2
	.type	seed1_volatile, @object
	.size	seed1_volatile, 4
seed1_volatile:
	.zero	4
	.section	.sbss.seed2_volatile,"aw",@nobits
	.align	2
	.type	seed2_volatile, @object
	.size	seed2_volatile, 4
seed2_volatile:
	.zero	4
	.section	.sbss.seed5_volatile,"aw",@nobits
	.align	2
	.type	seed5_volatile, @object
	.size	seed5_volatile, 4
seed5_volatile:
	.zero	4
	.section	.sbss.start_time_val,"aw",@nobits
	.align	2
	.set	.LANCHOR0,. + 0
	.type	start_time_val, @object
	.size	start_time_val, 4
start_time_val:
	.zero	4
	.section	.sbss.stop_time_val,"aw",@nobits
	.align	2
	.set	.LANCHOR1,. + 0
	.type	stop_time_val, @object
	.size	stop_time_val, 4
stop_time_val:
	.zero	4
	.section	.sdata.default_num_contexts,"aw",@progbits
	.align	2
	.type	default_num_contexts, @object
	.size	default_num_contexts, 4
default_num_contexts:
	.word	1
	.section	.sdata.seed3_volatile,"aw",@progbits
	.align	2
	.type	seed3_volatile, @object
	.size	seed3_volatile, 4
seed3_volatile:
	.word	102
	.section	.sdata.seed4_volatile,"aw",@progbits
	.align	2
	.type	seed4_volatile, @object
	.size	seed4_volatile, 4
seed4_volatile:
	.word	1
	.text
.Letext0:
	.file 2 "/users/epakmp/Workarea/pulp/toolchain/gnu-mcu-eclipse/7.2.0-2-20180111-2230/riscv-none-embed/include/sys/lock.h"
	.file 3 "/users/epakmp/Workarea/pulp/toolchain/gnu-mcu-eclipse/7.2.0-2-20180111-2230/riscv-none-embed/include/sys/_types.h"
	.file 4 "/users/epakmp/Workarea/pulp/toolchain/gnu-mcu-eclipse/7.2.0-2-20180111-2230/lib/gcc/riscv-none-embed/7.2.0/include/stddef.h"
	.file 5 "/users/epakmp/Workarea/pulp/toolchain/gnu-mcu-eclipse/7.2.0-2-20180111-2230/riscv-none-embed/include/sys/reent.h"
	.file 6 "/users/epakmp/Workarea/pulp/toolchain/gnu-mcu-eclipse/7.2.0-2-20180111-2230/riscv-none-embed/include/time.h"
	.file 7 "core_portme.h"
	.file 8 "coremark.h"