	.file	"core_state.c"
	.option nopic
	.text
.Ltext0:
	.cfi_sections	.debug_frame
	.section	.text.core_init_state,"ax",@progbits
	.align	2
	.globl	core_init_state
	.type	core_init_state, @function
core_init_state:
.LFB1:
	.file 1 "core_state.c"
	.loc 1 119 0
	.cfi_startproc
.LVL0:
	.loc 1 127 0
	li	a5,0
	.loc 1 120 0
	li	a3,0
	.loc 1 119 0
	addi	sp,sp,-32
	.cfi_def_cfa_offset 32
	addi	a1,a1,1
.LVL1:
	.loc 1 128 0
	add	a4,a3,a5
	.loc 1 119 0
	sw	s0,28(sp)
	sw	s1,24(sp)
	sw	s2,20(sp)
	sw	s3,16(sp)
	sw	s4,12(sp)
	sw	s5,8(sp)
	sw	s6,4(sp)
	slli	a1,a1,16
	.loc 1 140 0
	lui	t6,%hi(.LANCHOR0)
	.loc 1 136 0
	lui	a7,%hi(.L7)
	.loc 1 154 0
	lui	t5,%hi(.LANCHOR3)
	.loc 1 150 0
	lui	t4,%hi(.LANCHOR2)
	.loc 1 145 0
	lui	t3,%hi(.LANCHOR1)
	.loc 1 119 0
	sw	s7,0(sp)
	.cfi_offset 8, -4
	.cfi_offset 9, -8
	.cfi_offset 18, -12
	.cfi_offset 19, -16
	.cfi_offset 20, -20
	.cfi_offset 21, -24
	.cfi_offset 22, -28
	.cfi_offset 23, -32
	.loc 1 126 0
	addi	a6,a0,-1
.LVL2:
	.loc 1 128 0
	addi	s5,a4,1
	.loc 1 119 0
	mv	t1,a2
	srli	a1,a1,16
	.loc 1 121 0
	li	s6,0
	.loc 1 130 0
	li	t2,1
	.loc 1 132 0
	li	t0,44
	.loc 1 130 0
	li	s0,2
	li	s1,3
	li	a2,4
.LVL3:
	li	s2,5
	li	s3,6
	li	s4,8
	.loc 1 140 0
	addi	t6,t6,%lo(.LANCHOR0)
	.loc 1 136 0
	addi	a7,a7,%lo(.L7)
	.loc 1 154 0
	addi	t5,t5,%lo(.LANCHOR3)
	.loc 1 150 0
	addi	t4,t4,%lo(.LANCHOR2)
	.loc 1 145 0
	addi	t3,t3,%lo(.LANCHOR1)
.LVL4:
	.loc 1 128 0
	bgeu	s5,a6,.L18
.LVL5:
.L11:
	.loc 1 129 0
	bnez	a5,.L19
.LVL6:
	.loc 1 136 0
	andi	a5,a1,7
.LVL7:
	addi	a5,a5,-3
	slli	a5,a5,16
	srli	a4,a1,3
	srli	a5,a5,16
	andi	a4,a4,3
	bgtu	a5,a2,.L5
.L20:
	slli	a5,a5,2
	add	a5,a5,a7
	lw	a5,0(a5)
	.loc 1 154 0
	slli	a4,a4,2
	.loc 1 136 0
	jr	a5
	.section	.rodata.core_init_state,"a",@progbits
	.align	2
	.align	2
.L7:
	.word	.L6
	.word	.L6
	.word	.L8
	.word	.L8
	.word	.L9
	.section	.text.core_init_state
.L6:
	.loc 1 145 0
	add	a4,t3,a4
	lw	s6,0(a4)
.LVL8:
	.loc 1 146 0
	li	a5,8
.LVL9:
.L10:
	addi	a1,a1,1
.LVL10:
	.loc 1 128 0
	add	a4,a3,a5
	slli	a1,a1,16
	addi	s5,a4,1
	srli	a1,a1,16
.LVL11:
	bltu	s5,a6,.L11
.LVL12:
.L18:
	.loc 1 162 0
	bgeu	a3,a0,.L1
	.loc 1 169 0
	lw	s0,28(sp)
	.cfi_remember_state
	.cfi_restore 8
	lw	s1,24(sp)
	.cfi_restore 9
	lw	s2,20(sp)
	.cfi_restore 18
	lw	s3,16(sp)
	.cfi_restore 19
	lw	s4,12(sp)
	.cfi_restore 20
	lw	s5,8(sp)
	.cfi_restore 21
	lw	s6,4(sp)
	.cfi_restore 22
.LVL13:
	lw	s7,0(sp)
	.cfi_restore 23
	sub	a2,a0,a3
	li	a1,0
	add	a0,t1,a3
	addi	sp,sp,32
	.cfi_def_cfa_offset 0
	tail	memset
.LVL14:
.L8:
	.cfi_restore_state
	.loc 1 150 0
	add	a4,t4,a4
	lw	s6,0(a4)
.LVL15:
	.loc 1 151 0
	li	a5,8
	.loc 1 152 0
	j	.L10
.LVL16:
.L19:
	.loc 1 131 0
	lbu	s7,0(s6)
	add	a3,t1,a3
.LVL17:
	sb	s7,0(a3)
.LVL18:
	.loc 1 130 0
	beq	a5,t2,.L4
	.loc 1 131 0
	lbu	s7,1(s6)
	sb	s7,1(a3)
.LVL19:
	.loc 1 130 0
	beq	a5,s0,.L4
	.loc 1 131 0
	lbu	s7,2(s6)
	sb	s7,2(a3)
.LVL20:
	.loc 1 130 0
	beq	a5,s1,.L4
	.loc 1 131 0
	lbu	s7,3(s6)
	sb	s7,3(a3)
.LVL21:
	.loc 1 130 0
	beq	a5,a2,.L4
	.loc 1 131 0
	lbu	s7,4(s6)
	sb	s7,4(a3)
.LVL22:
	.loc 1 130 0
	beq	a5,s2,.L4
	.loc 1 131 0
	lbu	s7,5(s6)
	sb	s7,5(a3)
.LVL23:
	.loc 1 130 0
	beq	a5,s3,.L4
	.loc 1 131 0
	lbu	s7,6(s6)
	sb	s7,6(a3)
.LVL24:
	.loc 1 130 0
	bne	a5,s4,.L4
	.loc 1 131 0 discriminator 3
	lbu	a5,7(s6)
.LVL25:
	sb	a5,7(a3)
.LVL26:
.L4:
	.loc 1 136 0
	andi	a5,a1,7
	addi	a5,a5,-3
	.loc 1 132 0
	add	a4,t1,a4
	.loc 1 136 0
	slli	a5,a5,16
	.loc 1 132 0
	sb	t0,0(a4)
.LVL27:
	.loc 1 136 0
	srli	a5,a5,16
	srli	a4,a1,3
	.loc 1 132 0
	mv	a3,s5
.LVL28:
	andi	a4,a4,3
	.loc 1 136 0
	bleu	a5,a2,.L20
.LVL29:
.L5:
	.loc 1 140 0
	slli	a4,a4,2
	add	a4,t6,a4
	lw	s6,0(a4)
.LVL30:
	.loc 1 141 0
	li	a5,4
	.loc 1 142 0
	j	.L10
.LVL31:
.L9:
	.loc 1 154 0
	add	a4,t5,a4
	lw	s6,0(a4)
.LVL32:
	.loc 1 155 0
	li	a5,8
	.loc 1 156 0
	j	.L10
.LVL33:
.L1:
	.loc 1 169 0
	lw	s0,28(sp)
	.cfi_restore 8
	lw	s1,24(sp)
	.cfi_restore 9
	lw	s2,20(sp)
	.cfi_restore 18
	lw	s3,16(sp)
	.cfi_restore 19
	lw	s4,12(sp)
	.cfi_restore 20
	lw	s5,8(sp)
	.cfi_restore 21
	lw	s6,4(sp)
	.cfi_restore 22
.LVL34:
	lw	s7,0(sp)
	.cfi_restore 23
	addi	sp,sp,32
	.cfi_def_cfa_offset 0
	jr	ra
	.cfi_endproc
.LFE1:
	.size	core_init_state, .-core_init_state
	.section	.text.core_state_transition,"ax",@progbits
	.align	2
	.globl	core_state_transition
	.type	core_state_transition, @function
core_state_transition:
.LFB3:
	.loc 1 187 0
	.cfi_startproc
.LVL35:
	.loc 1 188 0
	lw	a5,0(a0)
.LVL36:
	.loc 1 191 0
	lbu	a4,0(a5)
	beqz	a4,.L23
.LVL37:
	.loc 1 193 0
	li	a3,44
	addi	a2,a5,1
	beq	a4,a3,.L84
.LVL38:
	lw	a6,0(a1)
.LBB26:
.LBB27:
	.loc 1 173 0
	addi	a7,a4,-48
	andi	a7,a7,0xff
	li	t1,9
	addi	a6,a6,1
	bgtu	a7,t1,.L30
.LVL39:
.LBE27:
.LBE26:
	.loc 1 212 0
	sw	a6,0(a1)
.LVL40:
	.loc 1 191 0
	lbu	a4,1(a5)
.LVL41:
	beqz	a4,.L59
.LVL42:
	addi	a5,a5,2
.LVL43:
	.loc 1 193 0
	beq	a4,a3,.L71
.LVL44:
.L28:
	.loc 1 229 0
	li	a6,46
.LBB28:
.LBB29:
	.loc 1 173 0
	li	a7,9
.LBE29:
.LBE28:
	.loc 1 193 0
	li	t1,44
.L52:
.LVL45:
.LBB32:
.LBB30:
	.loc 1 173 0
	addi	a3,a4,-48
	andi	a3,a3,0xff
.LBE30:
.LBE32:
	.loc 1 229 0
	beq	a4,a6,.L85
.LBB33:
.LBB31:
	.loc 1 173 0
	bleu	a3,a7,.L42
.LVL46:
.LBE31:
.LBE33:
	.loc 1 235 0
	lw	a3,16(a1)
	.loc 1 234 0
	li	a4,1
.LVL47:
	.loc 1 235 0
	addi	a3,a3,1
	sw	a3,16(a1)
.LVL48:
.L23:
	.loc 1 278 0
	sw	a5,0(a0)
	.loc 1 280 0
	mv	a0,a4
.LVL49:
	ret
.LVL50:
.L30:
	.loc 1 202 0
	li	a7,43
	beq	a4,a7,.L33
	.loc 1 202 0 is_stmt 0 discriminator 1
	li	a7,45
	beq	a4,a7,.L33
	.loc 1 205 0 is_stmt 1
	li	a7,46
	beq	a4,a7,.L34
.LVL51:
	.loc 1 210 0
	lw	a4,4(a1)
.LVL52:
	.loc 1 212 0
	sw	a6,0(a1)
.LVL53:
	mv	a5,a2
.LVL54:
	.loc 1 210 0
	addi	a4,a4,1
	sw	a4,4(a1)
.LVL55:
	.loc 1 209 0
	li	a4,1
.LVL56:
	.loc 1 278 0
	sw	a5,0(a0)
	.loc 1 280 0
	mv	a0,a4
.LVL57:
	ret
.LVL58:
.L33:
	.loc 1 212 0
	sw	a6,0(a1)
.LVL59:
	.loc 1 191 0
	lbu	a6,1(a5)
	beqz	a6,.L65
.LVL60:
	addi	a2,a5,2
	.loc 1 193 0
	beq	a6,a3,.L65
.LVL61:
	lw	a3,8(a1)
.LBB34:
.LBB35:
	.loc 1 173 0
	addi	a4,a6,-48
	andi	a4,a4,0xff
	li	a7,9
	addi	a3,a3,1
	bleu	a4,a7,.L35
.LVL62:
.LBE35:
.LBE34:
	.loc 1 219 0
	li	a4,46
	beq	a6,a4,.L86
.LVL63:
	.loc 1 225 0
	sw	a3,8(a1)
.LVL64:
	mv	a5,a2
	.loc 1 224 0
	li	a4,1
.LVL65:
	.loc 1 278 0
	sw	a5,0(a0)
	.loc 1 280 0
	mv	a0,a4
.LVL66:
	ret
.LVL67:
.L35:
	.loc 1 217 0
	sw	a3,8(a1)
.LVL68:
	.loc 1 191 0
	lbu	a4,2(a5)
	beqz	a4,.L59
.LVL69:
	.loc 1 193 0
	li	a3,44
	addi	a5,a2,1
	bne	a4,a3,.L28
.LVL70:
.L71:
	.loc 1 191 0
	li	a4,4
.LVL71:
	j	.L23
.LVL72:
.L85:
	.loc 1 231 0
	lw	a4,16(a1)
.LVL73:
	addi	a4,a4,1
	sw	a4,16(a1)
.LVL74:
	.loc 1 191 0
	lbu	a4,1(a2)
	beqz	a4,.L78
.LVL75:
	.loc 1 193 0
	li	a3,44
	addi	a6,a5,1
	beq	a4,a3,.L67
.LVL76:
.L27:
.LBB36:
.LBB37:
	.loc 1 173 0
	addi	a3,a4,-48
.LBE37:
.LBE36:
	.loc 1 239 0
	li	a2,69
	andi	a4,a4,223
.LVL77:
.LBB43:
.LBB38:
	.loc 1 173 0
	li	a7,9
.LBE38:
.LBE43:
	.loc 1 193 0
	li	t1,44
.LBB44:
.LBB39:
	.loc 1 173 0
	andi	a3,a3,0xff
.LBE39:
.LBE44:
	.loc 1 239 0
	beq	a4,a2,.L87
.L43:
.LBB45:
.LBB40:
	.loc 1 173 0
	bgtu	a3,a7,.L88
.LBE40:
.LBE45:
	.loc 1 191 0
	lbu	a4,1(a5)
.LVL78:
	addi	a3,a6,1
.LVL79:
	mv	a5,a6
	beqz	a4,.L67
	.loc 1 193 0
	beq	a4,t1,.L68
	mv	a6,a3
.LVL80:
.LBB46:
.LBB41:
	.loc 1 173 0
	addi	a3,a4,-48
.LVL81:
.LBE41:
.LBE46:
	.loc 1 239 0
	andi	a4,a4,223
.LVL82:
.LBB47:
.LBB42:
	.loc 1 173 0
	andi	a3,a3,0xff
.LVL83:
.LBE42:
.LBE47:
	.loc 1 239 0
	bne	a4,a2,.L43
.LVL84:
.L87:
	.loc 1 241 0
	lw	a4,20(a1)
	addi	a4,a4,1
	sw	a4,20(a1)
	.loc 1 191 0
	lbu	a4,1(a5)
	beqz	a4,.L89
.LVL85:
	.loc 1 193 0
	li	a2,44
	addi	a5,a6,1
	beq	a4,a2,.L79
	lw	a3,12(a1)
	.loc 1 249 0
	addi	a4,a4,-43
.LVL86:
	andi	a4,a4,253
.LVL87:
	addi	a3,a3,1
	.loc 1 251 0
	sw	a3,12(a1)
	.loc 1 249 0
	beqz	a4,.L90
	.loc 1 264 0
	li	a4,1
.LVL88:
.L93:
	.loc 1 278 0
	sw	a5,0(a0)
	.loc 1 280 0
	mv	a0,a4
.LVL89:
	ret
.LVL90:
.L90:
	.loc 1 191 0
	lbu	a4,1(a6)
	beqz	a4,.L91
.LVL91:
	addi	a3,a6,2
	.loc 1 193 0
	beq	a4,a2,.L92
.LVL92:
	lw	a5,24(a1)
.LBB48:
.LBB49:
	.loc 1 173 0
	addi	a4,a4,-48
.LVL93:
	andi	a4,a4,0xff
.LVL94:
	addi	a5,a5,1
	li	a7,9
.LBE49:
.LBE48:
	.loc 1 261 0
	sw	a5,24(a1)
.LVL95:
.LBB51:
.LBB50:
	.loc 1 173 0
	bleu	a4,a7,.L48
.LVL96:
.LBE50:
.LBE51:
	.loc 1 265 0
	mv	a5,a3
	.loc 1 264 0
	li	a4,1
	j	.L93
.LVL97:
.L48:
	.loc 1 191 0
	lbu	a4,2(a6)
	beqz	a4,.L94
.LVL98:
	addi	a5,a6,3
	.loc 1 193 0
	beq	a4,a2,.L69
.LBB52:
.LBB53:
	.loc 1 173 0
	li	a2,9
.LBE53:
.LBE52:
	.loc 1 193 0
	li	a7,44
.L25:
.LVL99:
.LBB55:
.LBB54:
	.loc 1 173 0
	addi	a4,a4,-48
.LVL100:
	andi	a4,a4,0xff
	bleu	a4,a2,.L50
.LVL101:
.LBE54:
.LBE55:
	.loc 1 271 0
	lw	a3,4(a1)
	.loc 1 270 0
	li	a4,1
	.loc 1 271 0
	addi	a3,a3,1
	sw	a3,4(a1)
	j	.L23
.LVL102:
.L50:
	.loc 1 191 0
	lbu	a4,1(a3)
.LVL103:
	addi	a6,a5,1
.LVL104:
	mv	a3,a5
	beqz	a4,.L69
	.loc 1 193 0
	mv	a5,a6
	bne	a4,a7,.L25
.LVL105:
.L69:
	.loc 1 191 0
	li	a4,7
.LVL106:
	j	.L23
.LVL107:
.L42:
	lbu	a4,1(a2)
.LVL108:
	addi	a3,a5,1
.LVL109:
	mv	a2,a5
	beqz	a4,.L71
	.loc 1 193 0
	mv	a5,a3
	bne	a4,t1,.L52
	.loc 1 191 0
	li	a4,4
.LVL110:
	j	.L23
.LVL111:
.L88:
	.loc 1 245 0
	lw	a3,20(a1)
	mv	a5,a6
	.loc 1 244 0
	li	a4,1
	.loc 1 245 0
	addi	a3,a3,1
	sw	a3,20(a1)
	j	.L23
.LVL112:
.L86:
	.loc 1 221 0
	sw	a3,8(a1)
.LVL113:
	.loc 1 191 0
	lbu	a4,2(a5)
	beqz	a4,.L63
.LVL114:
	.loc 1 193 0
	li	a5,44
	addi	a6,a2,1
	beq	a4,a5,.L67
.LVL115:
.L77:
	mv	a5,a2
	j	.L27
.LVL116:
.L84:
	mv	a5,a2
	li	a4,0
.LVL117:
	.loc 1 195 0
	j	.L23
.LVL118:
.L34:
	.loc 1 212 0
	sw	a6,0(a1)
.LVL119:
	.loc 1 191 0
	lbu	a4,1(a5)
.LVL120:
	beqz	a4,.L63
.LVL121:
	addi	a6,a5,2
	.loc 1 193 0
	bne	a4,a3,.L77
.LVL122:
.L67:
	.loc 1 191 0
	mv	a5,a6
	li	a4,5
.LVL123:
	j	.L23
.LVL124:
.L65:
	mv	a5,a2
	.loc 1 203 0
	li	a4,2
	j	.L23
.LVL125:
.L89:
	.loc 1 191 0
	mv	a5,a6
.L79:
	.loc 1 240 0
	li	a4,3
	j	.L23
.LVL126:
.L59:
	.loc 1 191 0
	mv	a5,a2
	.loc 1 200 0
	li	a4,4
	j	.L23
.LVL127:
.L63:
	.loc 1 191 0
	mv	a5,a2
.LVL128:
.L78:
	.loc 1 206 0
	li	a4,5
	j	.L23
.LVL129:
.L91:
	.loc 1 250 0
	li	a4,6
	j	.L23
.LVL130:
.L92:
	.loc 1 193 0
	mv	a5,a3
	.loc 1 250 0
	li	a4,6
.LVL131:
	j	.L23
.LVL132:
.L94:
	.loc 1 191 0
	mv	a5,a3
	.loc 1 260 0
	li	a4,7
	j	.L23
.LVL133:
.L68:
	.loc 1 193 0
	mv	a5,a3
	li	a4,5
.LVL134:
	j	.L23
	.cfi_endproc
.LFE3:
	.size	core_state_transition, .-core_state_transition
	.section	.text.core_bench_state,"ax",@progbits
	.align	2
	.globl	core_bench_state
	.type	core_bench_state, @function
core_bench_state:
.LFB0:
	.loc 1 48 0
	.cfi_startproc
.LVL135:
	addi	sp,sp,-160
	.cfi_def_cfa_offset 160
	sw	s0,152(sp)
	sw	s1,148(sp)
	sw	s2,144(sp)
	sw	s3,140(sp)
	sw	s4,136(sp)
	sw	s5,132(sp)
	sw	s6,128(sp)
	sw	ra,156(sp)
	sw	s7,124(sp)
	sw	s8,120(sp)
	sw	s9,116(sp)
	sw	s10,112(sp)
	sw	s11,108(sp)
	.cfi_offset 8, -8
	.cfi_offset 9, -12
	.cfi_offset 18, -16
	.cfi_offset 19, -20
	.cfi_offset 20, -24
	.cfi_offset 21, -28
	.cfi_offset 22, -32
	.cfi_offset 1, -4
	.cfi_offset 23, -36
	.cfi_offset 24, -40
	.cfi_offset 25, -44
	.cfi_offset 26, -48
	.cfi_offset 27, -52
	.loc 1 48 0
	mv	s0,a1
	.loc 1 62 0
	lbu	a1,0(a1)
.LVL136:
	addi	s1,sp,64
	sw	zero,64(sp)
	.loc 1 51 0
	sw	s0,28(sp)
.LVL137:
	sw	zero,4(s1)
	sw	zero,8(s1)
	sw	zero,12(s1)
	sw	zero,16(s1)
	sw	zero,20(s1)
	sw	zero,24(s1)
	sw	zero,28(s1)
	sw	zero,32(sp)
	sw	zero,36(sp)
	sw	zero,40(sp)
	sw	zero,44(sp)
	sw	zero,48(sp)
	sw	zero,52(sp)
	sw	zero,56(sp)
	sw	zero,60(sp)
	.loc 1 48 0
	mv	s6,a0
	mv	s5,a2
	mv	s2,a3
	mv	s4,a4
	mv	s3,a5
	.loc 1 62 0
	beqz	a1,.L96
.LVL138:
.L97:
.LBB72:
	.loc 1 63 0
	mv	a1,s1
	addi	a0,sp,28
	call	core_state_transition
.LVL139:
	.loc 1 64 0
	addi	a5,sp,96
	slli	a0,a0,2
.LVL140:
	add	a0,a5,a0
.LBE72:
	.loc 1 62 0
	lw	a4,28(sp)
.LBB73:
	.loc 1 64 0
	lw	a5,-64(a0)
.LBE73:
	.loc 1 62 0
	lbu	a4,0(a4)
.LBB74:
	.loc 1 64 0
	addi	a5,a5,1
	sw	a5,-64(a0)
.LBE74:
	.loc 1 62 0
	bnez	a4,.L97
	.loc 1 72 0
	sw	s0,28(sp)
	.loc 1 73 0
	add	a0,s0,s6
	lbu	a1,0(s0)
	bgeu	s0,a0,.L98
.L155:
	.loc 1 74 0
	li	a3,44
	.loc 1 48 0
	mv	a5,s0
	.loc 1 75 0
	xor	a4,a1,s5
	.loc 1 74 0
	beq	a1,a3,.L99
.L206:
	.loc 1 75 0
	sb	a4,0(a5)
	.loc 1 76 0
	lw	a5,28(sp)
	add	a5,a5,s4
	sw	a5,28(sp)
	.loc 1 73 0
	bgeu	a5,a0,.L101
.L100:
	lbu	a1,0(a5)
	.loc 1 75 0
	xor	a4,a1,s5
	.loc 1 74 0
	bne	a1,a3,.L206
.L99:
	.loc 1 76 0
	add	a5,a5,s4
	sw	a5,28(sp)
	.loc 1 73 0
	bltu	a5,a0,.L100
.L101:
	.loc 1 80 0
	lbu	a1,0(s0)
	.loc 1 78 0
	sw	s0,28(sp)
	.loc 1 80 0
	beqz	a1,.L156
.L103:
.LBB75:
.LBB76:
.LBB77:
	.loc 1 191 0
	li	a5,0
	mv	a3,a1
	.loc 1 202 0
	sw	a1,12(sp)
	lw	s10,68(sp)
	lw	s5,64(sp)
	lw	ra,72(sp)
	lw	s9,80(sp)
	lw	s8,84(sp)
	lw	t2,76(sp)
	lw	t0,88(sp)
	.loc 1 191 0
	mv	a2,s0
	sw	zero,8(sp)
	li	s11,0
	li	s6,0
.LVL141:
	li	a4,0
	sw	zero,4(sp)
	li	a6,0
	.loc 1 193 0
	li	t1,44
.LBB78:
.LBB79:
	.loc 1 173 0
	li	t3,9
.LBE79:
.LBE78:
	.loc 1 229 0
	li	s7,46
	.loc 1 202 0
	mv	a1,a5
	j	.L140
.LVL142:
.L210:
	.loc 1 191 0
	beqz	a7,.L157
.LVL143:
	addi	t5,a2,2
	.loc 1 193 0
	beq	a7,t1,.L115
	lbu	a6,2(a2)
	mv	a3,a7
.LVL144:
.L137:
.LBB81:
.LBB82:
	.loc 1 173 0
	addi	a5,a3,-48
	andi	a5,a5,0xff
.LBE82:
.LBE81:
	.loc 1 229 0
	beq	a3,s7,.L207
.LVL145:
.LBB84:
.LBB83:
	.loc 1 173 0
	bleu	a5,t3,.L130
.LVL146:
.LBE83:
.LBE84:
	.loc 1 235 0
	li	a5,1
	mv	a3,a6
	addi	s9,s9,1
.LVL147:
	mv	a2,t5
	sw	a5,4(sp)
	li	a6,1
.LVL148:
.L113:
.LBE77:
.LBE76:
	.loc 1 82 0
	addi	a7,sp,96
	slli	a5,a5,2
	add	a5,a7,a5
	lw	a7,-64(a5)
	addi	a7,a7,1
	sw	a7,-64(a5)
.LBE75:
	.loc 1 80 0
	beqz	a3,.L208
.L140:
.LVL149:
	lbu	a7,1(a2)
	addi	t6,a2,1
.LBB112:
.LBB107:
.LBB102:
	.loc 1 193 0
	beq	a3,t1,.L209
.LVL150:
.LBB85:
.LBB80:
	.loc 1 173 0
	addi	a5,a3,-48
	andi	a5,a5,0xff
	addi	s5,s5,1
	bleu	a5,t3,.L210
.LVL151:
.LBE80:
.LBE85:
	.loc 1 202 0
	li	a5,43
	beq	a3,a5,.L117
	li	a5,45
	beq	a3,a5,.L117
	.loc 1 205 0
	beq	a3,s7,.L119
.LVL152:
	.loc 1 210 0
	li	a5,1
	mv	a3,a7
.LVL153:
	sw	a5,8(sp)
.LBE102:
.LBE107:
	.loc 1 82 0
	addi	a7,sp,96
	slli	a5,a5,2
	add	a5,a7,a5
	lw	a7,-64(a5)
.LBB108:
.LBB103:
	.loc 1 210 0
	addi	s10,s10,1
.LVL154:
	mv	a2,t6
.LBE103:
.LBE108:
	.loc 1 82 0
	addi	a7,a7,1
	sw	a7,-64(a5)
.LBB109:
.LBB104:
	.loc 1 210 0
	li	a6,1
.LVL155:
.LBE104:
.LBE109:
.LBE112:
	.loc 1 80 0
	bnez	a3,.L140
.LVL156:
.L208:
	mv	a5,a1
	lw	a1,12(sp)
	bnez	a6,.L211
.L143:
	beqz	a5,.L144
	sw	ra,72(sp)
.L144:
	lw	a5,4(sp)
	beqz	a5,.L145
	sw	s9,80(sp)
.L145:
	beqz	a4,.L146
	sw	s8,84(sp)
.L146:
	beqz	s6,.L147
	sw	t2,76(sp)
.L147:
	beqz	s11,.L148
	sw	t0,88(sp)
.L148:
	lw	a5,8(sp)
	beqz	a5,.L149
	sw	s10,68(sp)
.L149:
	.loc 1 90 0
	sw	s0,28(sp)
	.loc 1 91 0
	bgeu	s0,a0,.L150
.L156:
	.loc 1 92 0
	li	a4,44
	.loc 1 93 0
	xor	a5,a1,s2
	.loc 1 92 0
	beq	a1,a4,.L151
.LVL157:
.L212:
	.loc 1 93 0
	sb	a5,0(s0)
	.loc 1 94 0
	lw	s0,28(sp)
	add	s0,s0,s4
	sw	s0,28(sp)
	.loc 1 91 0
	bgeu	s0,a0,.L150
.L152:
	lbu	a1,0(s0)
	.loc 1 93 0
	xor	a5,a1,s2
	.loc 1 92 0
	bne	a1,a4,.L212
.L151:
	.loc 1 94 0
	add	s0,s0,s4
	sw	s0,28(sp)
	.loc 1 91 0
	bltu	s0,a0,.L152
.L150:
	addi	s0,sp,32
	mv	s2,s1
	mv	a1,s3
.LVL158:
.L154:
	.loc 1 98 0 discriminator 3
	lw	a0,0(s0)
	addi	s0,s0,4
	addi	s2,s2,4
	call	crcu32
.LVL159:
	.loc 1 99 0 discriminator 3
	mv	a1,a0
	lw	a0,-4(s2)
.LVL160:
	call	crcu32
.LVL161:
	mv	a1,a0
.LVL162:
	.loc 1 97 0 discriminator 3
	bne	s1,s0,.L154
	.loc 1 102 0
	lw	ra,156(sp)
	.cfi_remember_state
	.cfi_restore 1
	lw	s0,152(sp)
	.cfi_restore 8
	lw	s1,148(sp)
	.cfi_restore 9
	lw	s2,144(sp)
	.cfi_restore 18
	lw	s3,140(sp)
	.cfi_restore 19
	lw	s4,136(sp)
	.cfi_restore 20
	lw	s5,132(sp)
	.cfi_restore 21
	lw	s6,128(sp)
	.cfi_restore 22
	lw	s7,124(sp)
	.cfi_restore 23
	lw	s8,120(sp)
	.cfi_restore 24
	lw	s9,116(sp)
	.cfi_restore 25
	lw	s10,112(sp)
	.cfi_restore 26
	lw	s11,108(sp)
	.cfi_restore 27
	addi	sp,sp,160
	.cfi_def_cfa_offset 0
	jr	ra
.LVL163:
.L207:
	.cfi_restore_state
.LBB113:
.LBB110:
.LBB105:
	.loc 1 231 0
	addi	s9,s9,1
	.loc 1 191 0
	beqz	a6,.L213
	addi	t4,t5,1
	.loc 1 193 0
	beq	a6,t1,.L214
	lbu	a5,2(t6)
	li	a3,1
.LVL164:
	sw	a3,4(sp)
.L139:
.LVL165:
.LBB86:
.LBB87:
	.loc 1 173 0
	addi	a3,a6,-48
.LBE87:
.LBE86:
	.loc 1 239 0
	li	a2,69
	andi	a6,a6,223
.LVL166:
.LBB90:
.LBB88:
	.loc 1 173 0
	andi	a3,a3,0xff
.LBE88:
.LBE90:
	.loc 1 239 0
	beq	a6,a2,.L215
.LVL167:
.LBB91:
.LBB89:
	.loc 1 173 0
	bleu	a3,t3,.L133
.LVL168:
.LBE89:
.LBE91:
	.loc 1 245 0
	mv	a3,a5
	addi	s8,s8,1
.LVL169:
	mv	a2,t4
	li	a4,1
	li	a6,1
	.loc 1 244 0
	li	a5,1
.LVL170:
	j	.L113
.LVL171:
.L215:
	.loc 1 241 0
	addi	s8,s8,1
	.loc 1 191 0
	beqz	a5,.L216
	addi	a2,t4,1
	.loc 1 193 0
	beq	a5,t1,.L217
	.loc 1 249 0
	addi	a5,a5,-43
	andi	a5,a5,253
	lbu	a3,2(t5)
	addi	t2,t2,1
	beqz	a5,.L218
.LVL172:
.L202:
.LBB92:
.LBB93:
	.loc 1 173 0
	li	s6,1
	li	a4,1
	li	a6,1
.LBE93:
.LBE92:
	.loc 1 264 0
	li	a5,1
	j	.L113
.LVL173:
.L218:
	.loc 1 191 0
	beqz	a3,.L219
.LVL174:
	addi	a2,t4,2
	.loc 1 193 0
	beq	a3,t1,.L220
.LBB96:
.LBB94:
	.loc 1 173 0
	addi	a3,a3,-48
	andi	a3,a3,0xff
	lbu	a5,2(t4)
.LVL175:
	addi	t0,t0,1
	bgtu	a3,t3,.L162
.LVL176:
.LBE94:
.LBE96:
	.loc 1 191 0
	li	a3,0
	beqz	a5,.L165
.LVL177:
	addi	a2,t4,3
.LVL178:
	lbu	a3,3(t4)
	.loc 1 193 0
	beq	a5,t1,.L165
.LVL179:
.L138:
.LBB97:
.LBB98:
	.loc 1 173 0
	addi	a5,a5,-48
.LVL180:
	andi	a5,a5,0xff
	bleu	a5,t3,.L136
.LVL181:
.LBE98:
.LBE97:
	.loc 1 271 0
	li	a5,1
	addi	s10,s10,1
.LVL182:
	sw	a5,8(sp)
	li	s11,1
	li	s6,1
	li	a4,1
	li	a6,1
	j	.L113
.LVL183:
.L162:
.LBB99:
.LBB95:
	.loc 1 173 0
	mv	a3,a5
	li	s11,1
	j	.L202
.LVL184:
.L136:
.LBE95:
.LBE99:
	.loc 1 191 0
	beqz	a3,.L165
	lbu	a4,1(a2)
.LVL185:
	mv	a5,a3
	addi	a2,a2,1
.LVL186:
	.loc 1 193 0
	mv	a3,a4
.LVL187:
	bne	a5,t1,.L138
.LVL188:
.L165:
	.loc 1 191 0
	li	s11,1
	li	s6,1
	li	a4,1
	li	a6,1
	li	a5,7
	j	.L113
.LVL189:
.L130:
	beqz	a6,.L163
	lbu	a5,1(t5)
.LVL190:
	addi	a2,t5,1
.LVL191:
	mv	a3,a6
.LVL192:
	mv	t6,t5
	.loc 1 193 0
	beq	a6,t1,.L164
	mv	t5,a2
	mv	a6,a5
.LVL193:
	j	.L137
.LVL194:
.L117:
	.loc 1 191 0
	beqz	a7,.L160
.LVL195:
	addi	t6,a2,2
	lbu	a3,2(a2)
	.loc 1 193 0
	beq	a7,t1,.L221
.LVL196:
.LBB100:
.LBB101:
	.loc 1 173 0
	addi	a5,a7,-48
	andi	a5,a5,0xff
	addi	ra,ra,1
	bleu	a5,t3,.L124
.LVL197:
.LBE101:
.LBE100:
	.loc 1 219 0
	beq	a7,s7,.L125
.LVL198:
	mv	a2,t6
	li	a1,1
	li	a6,1
	.loc 1 224 0
	li	a5,1
	j	.L113
.LVL199:
.L124:
	.loc 1 191 0
	beqz	a3,.L222
.LVL200:
	addi	t5,t6,1
	.loc 1 193 0
	beq	a3,t1,.L223
	lbu	a6,3(a2)
	li	a1,1
	j	.L137
.LVL201:
.L133:
	.loc 1 191 0
	beqz	a5,.L167
	lbu	a3,1(t4)
	addi	a2,t4,1
	mv	a6,a5
	mv	t5,t4
	.loc 1 193 0
	beq	a5,t1,.L201
	mv	t4,a2
.LVL202:
	mv	a5,a3
.LVL203:
	j	.L139
.LVL204:
.L125:
	.loc 1 191 0
	beqz	a3,.L224
.LVL205:
	addi	t4,t6,1
	.loc 1 193 0
	beq	a3,t1,.L109
	lbu	a5,3(a2)
	mv	t5,t6
	mv	a6,a3
	li	a1,1
	j	.L139
.LVL206:
.L119:
	.loc 1 191 0
	beqz	a7,.L158
.LVL207:
	addi	t4,a2,2
	.loc 1 193 0
	beq	a7,t1,.L120
	lbu	a5,2(a2)
	mv	t5,t6
	mv	a6,a7
	j	.L139
.LVL208:
.L209:
	mv	a3,a7
.LVL209:
	mv	a2,t6
	li	a5,0
.LVL210:
	j	.L113
.LVL211:
.L96:
.LBE105:
.LBE110:
.LBE113:
	.loc 1 73 0
	add	a0,s0,a0
.LVL212:
	bltu	s0,a0,.L155
	j	.L150
.LVL213:
.L98:
	.loc 1 80 0
	bnez	a1,.L103
	j	.L150
.LVL214:
.L219:
.LBB114:
.LBB111:
.LBB106:
	.loc 1 191 0
	li	s6,1
	li	a4,1
	li	a6,1
	.loc 1 250 0
	li	a5,6
	j	.L113
.LVL215:
.L216:
	.loc 1 191 0
	li	a3,0
	mv	a2,t4
	li	a4,1
	li	a6,1
	.loc 1 240 0
	li	a5,3
	j	.L113
.L217:
	lbu	a3,2(t5)
	.loc 1 193 0
	li	a4,1
	li	a6,1
	.loc 1 240 0
	li	a5,3
	j	.L113
.LVL216:
.L220:
	lbu	a3,2(t4)
	.loc 1 193 0
	li	s6,1
	li	a4,1
	li	a6,1
	.loc 1 250 0
	li	a5,6
	j	.L113
.LVL217:
.L157:
	.loc 1 191 0
	li	a3,0
.LVL218:
	mv	a2,t6
	li	a6,1
	.loc 1 200 0
	li	a5,4
	j	.L113
.LVL219:
.L222:
	.loc 1 191 0
	mv	a2,t6
	li	a1,1
	li	a6,1
	.loc 1 216 0
	li	a5,4
	j	.L113
.LVL220:
.L223:
	lbu	a3,3(a2)
.LVL221:
	.loc 1 193 0
	li	a1,1
	mv	a2,t5
	li	a6,1
	.loc 1 216 0
	li	a5,4
	j	.L113
.LVL222:
.L115:
	lbu	a3,2(a2)
.LVL223:
	.loc 1 193 0
	li	a6,1
	mv	a2,t5
	li	a5,4
	j	.L113
.LVL224:
.L167:
	.loc 1 191 0
	li	a3,0
	mv	a2,t4
.L201:
	li	a6,1
	li	a5,5
.LVL225:
	j	.L113
.LVL226:
.L213:
	li	a5,1
	sw	a5,4(sp)
	li	a3,0
.LVL227:
	mv	a2,t5
	li	a6,1
	.loc 1 230 0
	li	a5,5
	j	.L113
.LVL228:
.L163:
	.loc 1 191 0
	li	a3,0
.LVL229:
	mv	a2,t5
	li	a6,1
.LVL230:
	li	a5,4
	j	.L113
.LVL231:
.L214:
	.loc 1 193 0
	li	a5,1
	sw	a5,4(sp)
	lbu	a3,2(t6)
.LVL232:
	mv	a2,t4
	li	a6,1
	.loc 1 230 0
	li	a5,5
	j	.L113
.LVL233:
.L164:
	.loc 1 193 0
	mv	a3,a5
	li	a6,1
.LVL234:
	li	a5,4
	j	.L113
.LVL235:
.L160:
	.loc 1 191 0
	li	a3,0
.LVL236:
	mv	a2,t6
	li	a6,1
	.loc 1 203 0
	li	a5,2
	j	.L113
.LVL237:
.L221:
	.loc 1 193 0
	li	a6,1
	mv	a2,t6
	li	a5,2
	j	.L113
.LVL238:
.L109:
	lbu	a3,3(a2)
.LVL239:
	li	a1,1
	mv	a2,t4
	li	a6,1
	.loc 1 220 0
	li	a5,5
	j	.L113
.LVL240:
.L224:
	.loc 1 191 0
	mv	a2,t6
	li	a1,1
	li	a6,1
	.loc 1 220 0
	li	a5,5
	j	.L113
.LVL241:
.L120:
	lbu	a3,2(a2)
.LVL242:
	.loc 1 193 0
	li	a6,1
	mv	a2,t4
	li	a5,5
	j	.L113
.LVL243:
.L158:
	.loc 1 191 0
	li	a3,0
.LVL244:
	mv	a2,t6
	li	a6,1
	.loc 1 206 0
	li	a5,5
	j	.L113
.LVL245:
.L211:
	sw	s5,64(sp)
	j	.L143
.LBE106:
.LBE111:
.LBE114:
	.cfi_endproc
.LFE0:
	.size	core_bench_state, .-core_bench_state
	.section	.rodata.errpat,"a",@progbits
	.align	2
	.set	.LANCHOR3,. + 0
	.type	errpat, @object
	.size	errpat, 16
errpat:
	.word	.LC0
	.word	.LC1
	.word	.LC2
	.word	.LC3
	.section	.rodata.floatpat,"a",@progbits
	.align	2
	.set	.LANCHOR1,. + 0
	.type	floatpat, @object
	.size	floatpat, 16
floatpat:
	.word	.LC8
	.word	.LC9
	.word	.LC10
	.word	.LC11
	.section	.rodata.intpat,"a",@progbits
	.align	2
	.set	.LANCHOR0,. + 0
	.type	intpat, @object
	.size	intpat, 16
intpat:
	.word	.LC12
	.word	.LC13
	.word	.LC14
	.word	.LC15
	.section	.rodata.scipat,"a",@progbits
	.align	2
	.set	.LANCHOR2,. + 0
	.type	scipat, @object
	.size	scipat, 16
scipat:
	.word	.LC4
	.word	.LC5
	.word	.LC6
	.word	.LC7
	.section	.rodata.str1.4,"aMS",@progbits,1
	.align	2
.LC0:
	.string	"T0.3e-1F"
	.zero	3
.LC1:
	.string	"-T.T++Tq"
	.zero	3
.LC2:
	.string	"1T3.4e4z"
	.zero	3
.LC3:
	.string	"34.0e-T^"
	.zero	3
.LC4:
	.string	"5.500e+3"
	.zero	3
.LC5:
	.string	"-.123e-2"
	.zero	3
.LC6:
	.string	"-87e+832"
	.zero	3
.LC7:
	.string	"+0.6e-12"
	.zero	3
.LC8:
	.string	"35.54400"
	.zero	3
.LC9:
	.string	".1234500"
	.zero	3
.LC10:
	.string	"-110.700"
	.zero	3
.LC11:
	.string	"+0.64400"
	.zero	3
.LC12:
	.string	"5012"
	.zero	3
.LC13:
	.string	"1234"
	.zero	3
.LC14:
	.string	"-874"
	.zero	3
.LC15:
	.string	"+122"
	.text
.Letext0:
	.file 2 "/users/epakmp/Workarea/pulp/toolchain/gnu-mcu-eclipse/7.2.0-2-20180111-2230/riscv-none-embed/include/sys/lock.h"
	.file 3 "/users/epakmp/Workarea/pulp/toolchain/gnu-mcu-eclipse/7.2.0-2-20180111-2230/riscv-none-embed/include/sys/_types.h"
	.file 4 "/users/epakmp/Workarea/pulp/toolchain/gnu-mcu-eclipse/7.2.0-2-20180111-2230/lib/gcc/riscv-none-embed/7.2.0/include/stddef.h"
	.file 5 "/users/epakmp/Workarea/pulp/toolchain/gnu-mcu-eclipse/7.2.0-2-20180111-2230/riscv-none-embed/include/sys/reent.h"
	.file 6 "/users/epakmp/Workarea/pulp/toolchain/gnu-mcu-eclipse/7.2.0-2-20180111-2230/riscv-none-embed/include/time.h"
	.file 7 "core_portme.h"
	.file 8 "coremark.h"
	.file 9 "<built-in>"