	.file	"helloworld.c"
	.option nopic
	.text
.Ltext0:
	.cfi_sections	.debug_frame
	.section	.rodata
	.align	2
.LC0:
	.string	"\n\n\n **** HELLO WORLD **** \n\n\n"
	.section	.text.main,"ax",@progbits
	.align	2
	.globl	main
	.type	main, @function
main:
.LFB0:
	.file 1 "./helloworld.c"
	.loc 1 7 0
	.cfi_startproc
	addi	sp,sp,-16
	.cfi_def_cfa_offset 16
	sw	ra,12(sp)
	sw	s0,8(sp)
	.cfi_offset 1, -4
	.cfi_offset 8, -8
	addi	s0,sp,16
	.cfi_def_cfa 8, 0
	.loc 1 9 0
	lui	a5,%hi(.LC0)
	addi	a0,a5,%lo(.LC0)
	call	bm_printf
	.loc 1 11 0
	call	sim_finish
	.loc 1 13 0
	li	a5,0
	.loc 1 14 0
	mv	a0,a5
	lw	ra,12(sp)
	.cfi_restore 1
	lw	s0,8(sp)
	.cfi_restore 8
	addi	sp,sp,16
	.cfi_def_cfa_register 2
	jr	ra
	.cfi_endproc
.LFE0:
	.size	main, .-main
	.text
.Letext0: